target datalayout = "e-m:e-p270:32:32-p271:32:32-p272:64:64-i64:64-i128:128-f80:128-n8:16:32:64-S128"
target triple = "x86_64-pc-linux-gnu"

%struct.WOLFSSL_BUFFER_INFO = type { ptr, i32 }
%struct.WOLFSSL = type <{ ptr, ptr, ptr, ptr, [48 x i8], [48 x i8], ptr, ptr, ptr, ptr, ptr, ptr, ptr, ptr, ptr, ptr, ptr, ptr, ptr, i32, [4 x i8], %struct.WOLFSSL_CIPHER, ptr, %struct.Ciphers, %struct.Ciphers, [8 x i8], %struct.Buffers, ptr, ptr, %struct.WOLFSSL_ALERT_HISTORY, %struct.WOLFSSL_ALERT, i32, i32, i32, i32, i32, i32, i32, i16, [2 x i8], i32, i8, %struct.RecordLayerHeader, %struct.MsgsReceived, %struct.ProtocolVersion, %struct.ProtocolVersion, %struct.CipherSpecs, [2 x i8], %struct.Keys, %struct.Options, ptr, i8, i8, i16, [10 x i16], i8, i8, i16, i16, [38 x i8], i32, i32, [4 x i8], ptr, i8, i8, [6 x i8], ptr, ptr, i16, i8, i8, i32, i8, [3 x i8], i32, %struct.OneTimeAuth, ptr }>
%struct.WOLFSSL_CIPHER = type { i8, i8, ptr }
%struct.Ciphers = type { ptr, ptr, ptr, ptr, i8, i8 }
%struct.Buffers = type { %struct.bufferStatic, %struct.bufferStatic, %struct.WOLFSSL_BUFFER_INFO, %struct.WOLFSSL_BUFFER_INFO, %struct.WOLFSSL_BUFFER_INFO, %struct.WOLFSSL_BUFFER_INFO, i32, i32, i8, i8, i8, i8, %struct.WOLFSSL_BUFFER_INFO, %struct.WOLFSSL_BUFFER_INFO, %struct.WOLFSSL_BUFFER_INFO, %struct.WOLFSSL_BUFFER_INFO, ptr, ptr, ptr, i8, i8, i32, i32, ptr, i32, [1 x ptr] }
%struct.bufferStatic = type { [5 x i8], ptr, i32, i32, i32, i8, i8 }
%struct.WOLFSSL_ALERT_HISTORY = type { %struct.WOLFSSL_ALERT, %struct.WOLFSSL_ALERT }
%struct.WOLFSSL_ALERT = type { i32, i32 }
%struct.RecordLayerHeader = type { i8, i8, i8, [2 x i8] }
%struct.MsgsReceived = type { i32 }
%struct.ProtocolVersion = type { i8, i8 }
%struct.CipherSpecs = type { i16, i16, i16, i16, i8, i8, i8, i8, i8, i8, i8, i8 }
%struct.Keys = type { [64 x i8], [64 x i8], [32 x i8], [32 x i8], [16 x i8], [16 x i8], [8 x i8], [12 x i8], [12 x i8], i32, i32, i32, i32, i32, i32, i8, i8, i8, i8 }
%struct.Options = type { i64, i64, i8, i8, i8, i8, i8, i8, i8, i8, i8, i8, i8, i8, i8, i8, i8, i8, i8, i8, i8, i8, i8, i16, i16, i16, i16, i16, i8 }
%struct.OneTimeAuth = type { ptr, i8 }

; Function Attrs: nounwind uwtable
define i32 @wolfSSL_check_domain_name(ptr noundef %0, ptr noundef %1) #0 {
  %3 = alloca i32, align 4
  %4 = alloca ptr, align 8
  %5 = alloca ptr, align 8
  %6 = alloca ptr, align 8
  %7 = alloca ptr, align 8
  store ptr %0, ptr %4, align 8, !tbaa !61
  store ptr %1, ptr %5, align 8, !tbaa !21
  br label %8

8:                                                ; preds = %2
  br label %9

9:                                                ; preds = %8
  %10 = load ptr, ptr %4, align 8, !tbaa !61
  %11 = icmp eq ptr %10, null
  br i1 %11, label %15, label %12

12:                                               ; preds = %9
  %13 = load ptr, ptr %5, align 8, !tbaa !21
  %14 = icmp eq ptr %13, null
  br i1 %14, label %15, label %18

15:                                               ; preds = %12, %9
  br label %16

16:                                               ; preds = %15
  br label %17

17:                                               ; preds = %16
  store i32 0, ptr %3, align 4
  br label %89

18:                                               ; preds = %12
  %19 = load ptr, ptr %4, align 8, !tbaa !61
  %20 = getelementptr inbounds nuw %struct.WOLFSSL, ptr %19, i32 0, i32 26
  %21 = getelementptr inbounds nuw %struct.Buffers, ptr %20, i32 0, i32 2
  %22 = getelementptr inbounds nuw %struct.WOLFSSL_BUFFER_INFO, ptr %21, i32 0, i32 0
  %23 = load ptr, ptr %22, align 16, !tbaa !258
  %24 = icmp ne ptr %23, null
  br i1 %24, label %25, label %38

25:                                               ; preds = %18
  br label %26

26:                                               ; preds = %25
  call void @llvm.lifetime.start.p0(i64 8, ptr %6) #9
  %27 = load ptr, ptr %4, align 8, !tbaa !61
  %28 = getelementptr inbounds nuw %struct.WOLFSSL, ptr %27, i32 0, i32 26
  %29 = getelementptr inbounds nuw %struct.Buffers, ptr %28, i32 0, i32 2
  %30 = getelementptr inbounds nuw %struct.WOLFSSL_BUFFER_INFO, ptr %29, i32 0, i32 0
  %31 = load ptr, ptr %30, align 16, !tbaa !258
  store ptr %31, ptr %6, align 8, !tbaa !3
  %32 = load ptr, ptr %6, align 8, !tbaa !3
  %33 = icmp ne ptr %32, null
  br i1 %33, label %34, label %36

34:                                               ; preds = %26
  %35 = load ptr, ptr %6, align 8, !tbaa !3
  call void @wolfSSL_Free(ptr noundef %35)
  br label %36

36:                                               ; preds = %34, %26
  call void @llvm.lifetime.end.p0(i64 8, ptr %6) #9
  br label %37

37:                                               ; preds = %36
  br label %38

38:                                               ; preds = %37, %18
  %39 = load ptr, ptr %5, align 8, !tbaa !21
  %40 = call i64 @strlen(ptr noundef %39) #10
  %41 = trunc i64 %40 to i32
  %42 = load ptr, ptr %4, align 8, !tbaa !61
  %43 = getelementptr inbounds nuw %struct.WOLFSSL, ptr %42, i32 0, i32 26
  %44 = getelementptr inbounds nuw %struct.Buffers, ptr %43, i32 0, i32 2
  %45 = getelementptr inbounds nuw %struct.WOLFSSL_BUFFER_INFO, ptr %44, i32 0, i32 1
  store i32 %41, ptr %45, align 8, !tbaa !259
  %46 = load ptr, ptr %4, align 8, !tbaa !61
  %47 = getelementptr inbounds nuw %struct.WOLFSSL, ptr %46, i32 0, i32 26
  %48 = getelementptr inbounds nuw %struct.Buffers, ptr %47, i32 0, i32 2
  %49 = getelementptr inbounds nuw %struct.WOLFSSL_BUFFER_INFO, ptr %48, i32 0, i32 1
  %50 = load i32, ptr %49, align 8, !tbaa !259
  %51 = add i32 %50, 1
  %52 = zext i32 %51 to i64
  %53 = call ptr @wolfSSL_Malloc(i64 noundef %52)
  %54 = load ptr, ptr %4, align 8, !tbaa !61
  %55 = getelementptr inbounds nuw %struct.WOLFSSL, ptr %54, i32 0, i32 26
  %56 = getelementptr inbounds nuw %struct.Buffers, ptr %55, i32 0, i32 2
  %57 = getelementptr inbounds nuw %struct.WOLFSSL_BUFFER_INFO, ptr %56, i32 0, i32 0
  store ptr %53, ptr %57, align 16, !tbaa !258
  %58 = load ptr, ptr %4, align 8, !tbaa !61
  %59 = getelementptr inbounds nuw %struct.WOLFSSL, ptr %58, i32 0, i32 26
  %60 = getelementptr inbounds nuw %struct.Buffers, ptr %59, i32 0, i32 2
  %61 = getelementptr inbounds nuw %struct.WOLFSSL_BUFFER_INFO, ptr %60, i32 0, i32 0
  %62 = load ptr, ptr %61, align 16, !tbaa !258
  %63 = icmp ne ptr %62, null
  br i1 %63, label %64, label %86

64:                                               ; preds = %38
  call void @llvm.lifetime.start.p0(i64 8, ptr %7) #9
  %65 = load ptr, ptr %4, align 8, !tbaa !61
  %66 = getelementptr inbounds nuw %struct.WOLFSSL, ptr %65, i32 0, i32 26
  %67 = getelementptr inbounds nuw %struct.Buffers, ptr %66, i32 0, i32 2
  %68 = getelementptr inbounds nuw %struct.WOLFSSL_BUFFER_INFO, ptr %67, i32 0, i32 0
  %69 = load ptr, ptr %68, align 16, !tbaa !258
  store ptr %69, ptr %7, align 8, !tbaa !21
  %70 = load ptr, ptr %7, align 8, !tbaa !21
  %71 = load ptr, ptr %5, align 8, !tbaa !21
  %72 = load ptr, ptr %4, align 8, !tbaa !61
  %73 = getelementptr inbounds nuw %struct.WOLFSSL, ptr %72, i32 0, i32 26
  %74 = getelementptr inbounds nuw %struct.Buffers, ptr %73, i32 0, i32 2
  %75 = getelementptr inbounds nuw %struct.WOLFSSL_BUFFER_INFO, ptr %74, i32 0, i32 1
  %76 = load i32, ptr %75, align 8, !tbaa !259
  %77 = zext i32 %76 to i64
  call void @llvm.memcpy.p0.p0.i64(ptr align 1 %70, ptr align 1 %71, i64 %77, i1 false)
  %78 = load ptr, ptr %7, align 8, !tbaa !21
  %79 = load ptr, ptr %4, align 8, !tbaa !61
  %80 = getelementptr inbounds nuw %struct.WOLFSSL, ptr %79, i32 0, i32 26
  %81 = getelementptr inbounds nuw %struct.Buffers, ptr %80, i32 0, i32 2
  %82 = getelementptr inbounds nuw %struct.WOLFSSL_BUFFER_INFO, ptr %81, i32 0, i32 1
  %83 = load i32, ptr %82, align 8, !tbaa !259
  %84 = zext i32 %83 to i64
  %85 = getelementptr inbounds nuw i8, ptr %78, i64 %84
  store i8 0, ptr %85, align 1, !tbaa !20
  store i32 1, ptr %3, align 4
  call void @llvm.lifetime.end.p0(i64 8, ptr %7) #9
  br label %89

86:                                               ; preds = %38
  %87 = load ptr, ptr %4, align 8, !tbaa !61
  %88 = getelementptr inbounds nuw %struct.WOLFSSL, ptr %87, i32 0, i32 31
  store i32 -303, ptr %88, align 8, !tbaa !152
  store i32 0, ptr %3, align 4
  br label %89

89:                                               ; preds = %86, %64, %17
  %90 = load i32, ptr %3, align 4
  ret i32 %90
}