; Function Attrs: nounwind uwtable
define range(i32 0, 2) i32 @wolfSSL_check_domain_name(ptr noundef captures(address_is_null) %0, ptr noundef readonly captures(address_is_null) %1) local_unnamed_addr #0 {
  %3 = icmp eq ptr %0, null
  %4 = icmp eq ptr %1, null
  %or.cond = or i1 %3, %4
  br i1 %or.cond, label %24, label %5

5:                                                ; preds = %2
  %6 = getelementptr inbounds nuw i8, ptr %0, i64 416
  %7 = load ptr, ptr %6, align 16, !tbaa !237
  %.not = icmp eq ptr %7, null
  br i1 %.not, label %9, label %8

8:                                                ; preds = %5
  tail call void @wolfSSL_Free(ptr noundef nonnull %7) #22
  br label %9

9:                                                ; preds = %8, %5
  %10 = tail call i64 @strlen(ptr noundef nonnull dereferenceable(1) %1) #23
  %11 = trunc i64 %10 to i32
  %12 = getelementptr inbounds nuw i8, ptr %0, i64 424
  store i32 %11, ptr %12, align 8, !tbaa !238
  %13 = add i64 %10, 1
  %14 = and i64 %13, 4294967295
  %15 = tail call ptr @wolfSSL_Malloc(i64 noundef %14) #22
  store ptr %15, ptr %6, align 16, !tbaa !237
  %.not23 = icmp eq ptr %15, null
  br i1 %.not23, label %22, label %16

16:                                               ; preds = %9
  %17 = load i32, ptr %12, align 8, !tbaa !238
  %18 = zext i32 %17 to i64
  tail call void @llvm.memcpy.p0.p0.i64(ptr nonnull align 1 %15, ptr nonnull align 1 %1, i64 %18, i1 false)
  %19 = load i32, ptr %12, align 8, !tbaa !238
  %20 = zext i32 %19 to i64
  %21 = getelementptr inbounds nuw i8, ptr %15, i64 %20
  store i8 0, ptr %21, align 1, !tbaa !43
  br label %24

22:                                               ; preds = %9
  %23 = getelementptr inbounds nuw i8, ptr %0, i64 664
  store i32 -303, ptr %23, align 8, !tbaa !130
  br label %24

24:                                               ; preds = %2, %22, %16
  %.0 = phi i32 [ 1, %16 ], [ 0, %22 ], [ 0, %2 ]
  ret i32 %.0
}